target datalayout = "e-m:e-p270:32:32-p271:32:32-p272:64:64-i64:64-i128:128-f80:128-n8:16:32:64-S128"
target triple = "x86_64-pc-linux-gnu"

%struct.lv_point_t = type { i32, i32 }
%struct.lv_area_t = type { i32, i32, i32, i32 }
%struct._lv_obj_t = type { ptr, ptr, ptr, ptr, ptr, %struct.lv_area_t, i32, i16, i16 }
%struct._lv_obj_spec_attr_t = type { ptr, ptr, %struct.lv_event_list_t, %struct.lv_point_t, i32, i32, i16, i16 }
%struct.lv_event_list_t = type { %struct._lv_array_t, i8 }
%struct._lv_array_t = type { ptr, i32, i32, i32, i8 }

; Function Attrs: nounwind uwtable
define internal void @layout_update_core(ptr noundef %0) #0 {
  %2 = alloca ptr, align 8
  %3 = alloca i32, align 4
  %4 = alloca i32, align 4
  %5 = alloca ptr, align 8
  store ptr %0, ptr %2, align 8, !tbaa !3
  call void @llvm.lifetime.start.p0(i64 4, ptr %3) #5
  call void @llvm.lifetime.start.p0(i64 4, ptr %4) #5
  %6 = load ptr, ptr %2, align 8, !tbaa !3
  %7 = call i32 @lv_obj_get_child_count(ptr noundef %6)
  store i32 %7, ptr %4, align 4, !tbaa !7
  store i32 0, ptr %3, align 4, !tbaa !7
  br label %8

8:                                                ; preds = %23, %1
  %9 = load i32, ptr %3, align 4, !tbaa !7
  %10 = load i32, ptr %4, align 4, !tbaa !7
  %11 = icmp ult i32 %9, %10
  br i1 %11, label %12, label %26

12:                                               ; preds = %8
  call void @llvm.lifetime.start.p0(i64 8, ptr %5) #5
  %13 = load ptr, ptr %2, align 8, !tbaa !3
  %14 = getelementptr inbounds nuw %struct._lv_obj_t, ptr %13, i32 0, i32 2
  %15 = load ptr, ptr %14, align 8, !tbaa !21
  %16 = getelementptr inbounds nuw %struct._lv_obj_spec_attr_t, ptr %15, i32 0, i32 0
  %17 = load ptr, ptr %16, align 8, !tbaa !27
  %18 = load i32, ptr %3, align 4, !tbaa !7
  %19 = zext i32 %18 to i64
  %20 = getelementptr inbounds nuw ptr, ptr %17, i64 %19
  %21 = load ptr, ptr %20, align 8, !tbaa !3
  store ptr %21, ptr %5, align 8, !tbaa !3
  %22 = load ptr, ptr %5, align 8, !tbaa !3
  call void @layout_update_core(ptr noundef %22)
  call void @llvm.lifetime.end.p0(i64 8, ptr %5) #5
  br label %23

23:                                               ; preds = %12
  %24 = load i32, ptr %3, align 4, !tbaa !7
  %25 = add i32 %24, 1
  store i32 %25, ptr %3, align 4, !tbaa !7
  br label %8, !llvm.loop !49

26:                                               ; preds = %8
  %27 = load ptr, ptr %2, align 8, !tbaa !3
  %28 = getelementptr inbounds nuw %struct._lv_obj_t, ptr %27, i32 0, i32 8
  %29 = load i16, ptr %28, align 2
  %30 = and i16 %29, 1
  %31 = icmp ne i16 %30, 0
  br i1 %31, label %32, label %46

32:                                               ; preds = %26
  %33 = load ptr, ptr %2, align 8, !tbaa !3
  %34 = getelementptr inbounds nuw %struct._lv_obj_t, ptr %33, i32 0, i32 8
  %35 = load i16, ptr %34, align 2
  %36 = and i16 %35, -2
  %37 = or i16 %36, 0
  store i16 %37, ptr %34, align 2
  %38 = load ptr, ptr %2, align 8, !tbaa !3
  %39 = call zeroext i1 @lv_obj_refr_size(ptr noundef %38)
  %40 = load ptr, ptr %2, align 8, !tbaa !3
  call void @lv_obj_refr_pos(ptr noundef %40)
  %41 = load i32, ptr %4, align 4, !tbaa !7
  %42 = icmp ugt i32 %41, 0
  br i1 %42, label %43, label %45

43:                                               ; preds = %32
  %44 = load ptr, ptr %2, align 8, !tbaa !3
  call void @lv_layout_apply(ptr noundef %44)
  br label %45

45:                                               ; preds = %43, %32
  br label %46

46:                                               ; preds = %45, %26
  %47 = load ptr, ptr %2, align 8, !tbaa !3
  %48 = getelementptr inbounds nuw %struct._lv_obj_t, ptr %47, i32 0, i32 8
  %49 = load i16, ptr %48, align 2
  %50 = lshr i16 %49, 1
  %51 = and i16 %50, 1
  %52 = icmp ne i16 %51, 0
  br i1 %52, label %53, label %60

53:                                               ; preds = %46
  %54 = load ptr, ptr %2, align 8, !tbaa !3
  %55 = getelementptr inbounds nuw %struct._lv_obj_t, ptr %54, i32 0, i32 8
  %56 = load i16, ptr %55, align 2
  %57 = and i16 %56, -3
  %58 = or i16 %57, 0
  store i16 %58, ptr %55, align 2
  %59 = load ptr, ptr %2, align 8, !tbaa !3
  call void @lv_obj_readjust_scroll(ptr noundef %59, i32 noundef 0)
  br label %60

60:                                               ; preds = %53, %46
  call void @llvm.lifetime.end.p0(i64 4, ptr %4) #5
  call void @llvm.lifetime.end.p0(i64 4, ptr %3) #5
  ret void
}