; Function Attrs: nounwind uwtable
define internal fastcc void @layout_update_core(ptr noundef %0) unnamed_addr #0 {
  %2 = tail call i32 @lv_obj_get_child_count(ptr noundef %0) #8
  %.not19 = icmp eq i32 %2, 0
  br i1 %.not19, label %._crit_edge, label %.lr.ph

.lr.ph:                                           ; preds = %1
  %3 = getelementptr inbounds nuw i8, ptr %0, i64 16
  %wide.trip.count = zext i32 %2 to i64
  br label %4

4:                                                ; preds = %.lr.ph, %4
  %indvars.iv = phi i64 [ 0, %.lr.ph ], [ %indvars.iv.next, %4 ]
  %5 = load ptr, ptr %3, align 8, !tbaa !6
  %6 = load ptr, ptr %5, align 8, !tbaa !19
  %7 = getelementptr inbounds nuw ptr, ptr %6, i64 %indvars.iv
  %8 = load ptr, ptr %7, align 8, !tbaa !20
  tail call fastcc void @layout_update_core(ptr noundef %8)
  %indvars.iv.next = add nuw nsw i64 %indvars.iv, 1
  %exitcond.not = icmp eq i64 %indvars.iv.next, %wide.trip.count
  br i1 %exitcond.not, label %._crit_edge, label %4, !llvm.loop !49

._crit_edge:                                      ; preds = %4, %1
  %9 = getelementptr inbounds nuw i8, ptr %0, i64 62
  %10 = load i16, ptr %9, align 2
  %11 = and i16 %10, 1
  %.not = icmp eq i16 %11, 0
  br i1 %.not, label %16, label %12

12:                                               ; preds = %._crit_edge
  %13 = and i16 %10, -2
  store i16 %13, ptr %9, align 2
  %14 = tail call zeroext i1 @lv_obj_refr_size(ptr noundef nonnull %0)
  tail call void @lv_obj_refr_pos(ptr noundef nonnull %0)
  br i1 %.not19, label %16, label %15

15:                                               ; preds = %12
  tail call void @lv_layout_apply(ptr noundef nonnull %0) #8
  br label %16

16:                                               ; preds = %12, %15, %._crit_edge
  %17 = load i16, ptr %9, align 2
  %18 = and i16 %17, 2
  %.not17 = icmp eq i16 %18, 0
  br i1 %.not17, label %21, label %19

19:                                               ; preds = %16
  %20 = and i16 %17, -3
  store i16 %20, ptr %9, align 2
  tail call void @lv_obj_readjust_scroll(ptr noundef nonnull %0, i32 noundef 0) #8
  br label %21

21:                                               ; preds = %19, %16
  ret void
}